; Function Attrs: nounwind uwtable
define ptr @l_Lean_Meta_IndPredBelow_getBelowIndices___lambda__1(ptr noundef %0, ptr noundef %1, ptr readnone captures(none) %2, ptr noundef %3, ptr noundef %4, ptr noundef %5, ptr noundef %6, ptr noundef %7) local_unnamed_addr #0 {
  %9 = getelementptr inbounds nuw i8, ptr %0, i64 8
  %10 = load ptr, ptr %9, align 8, !tbaa !4
  %11 = ptrtoint ptr %10 to i64
  %12 = and i64 %11, 1
  %.not = icmp eq i64 %12, 0
  br i1 %.not, label %13, label %lean_inc.exit18

13:                                               ; preds = %8
  %.val.i = load i32, ptr %10, align 4, !tbaa !12
  %14 = icmp sgt i32 %.val.i, 0
  br i1 %14, label %15, label %17, !prof !11

15:                                               ; preds = %13
  %16 = add nuw i32 %.val.i, 1
  store i32 %16, ptr %10, align 4, !tbaa !12
  br label %lean_inc.exit18

17:                                               ; preds = %13
  %.not.i21 = icmp eq i32 %.val.i, 0
  br i1 %.not.i21, label %lean_inc.exit18, label %18

18:                                               ; preds = %17
  tail call void @lean_inc_ref_cold(ptr noundef nonnull %10) #6
  br label %lean_inc.exit18

lean_inc.exit18:                                  ; preds = %18, %17, %15, %8
  %19 = ptrtoint ptr %0 to i64
  %20 = and i64 %19, 1
  %.not25 = icmp eq i64 %20, 0
  br i1 %.not25, label %21, label %lean_dec.exit17

21:                                               ; preds = %lean_inc.exit18
  %22 = load i32, ptr %0, align 4, !tbaa !12
  %23 = icmp sgt i32 %22, 1
  br i1 %23, label %24, label %26, !prof !11

24:                                               ; preds = %21
  %25 = add nsw i32 %22, -1
  store i32 %25, ptr %0, align 4, !tbaa !12
  br label %lean_dec.exit17

26:                                               ; preds = %21
  %.not.i = icmp eq i32 %22, 0
  br i1 %.not.i, label %lean_dec.exit17, label %27

27:                                               ; preds = %26
  tail call void @lean_dec_ref_cold(ptr noundef nonnull %0) #6
  br label %lean_dec.exit17

lean_dec.exit17:                                  ; preds = %27, %26, %24, %lean_inc.exit18
  %28 = getelementptr inbounds nuw i8, ptr %10, i64 24
  %29 = load ptr, ptr %28, align 8, !tbaa !4
  %30 = ptrtoint ptr %29 to i64
  %31 = and i64 %30, 1
  %.not26 = icmp eq i64 %31, 0
  br i1 %.not26, label %32, label %lean_inc.exit

32:                                               ; preds = %lean_dec.exit17
  %.val.i22 = load i32, ptr %29, align 4, !tbaa !12
  %33 = icmp sgt i32 %.val.i22, 0
  br i1 %33, label %34, label %36, !prof !11

34:                                               ; preds = %32
  %35 = add nuw i32 %.val.i22, 1
  store i32 %35, ptr %29, align 4, !tbaa !12
  br label %lean_inc.exit

36:                                               ; preds = %32
  %.not.i23 = icmp eq i32 %.val.i22, 0
  br i1 %.not.i23, label %lean_inc.exit, label %37

37:                                               ; preds = %36
  tail call void @lean_inc_ref_cold(ptr noundef nonnull %29) #6
  br label %lean_inc.exit

lean_inc.exit:                                    ; preds = %37, %36, %34, %lean_dec.exit17
  br i1 %.not, label %38, label %lean_dec.exit

38:                                               ; preds = %lean_inc.exit
  %39 = load i32, ptr %10, align 4, !tbaa !12
  %40 = icmp sgt i32 %39, 1
  br i1 %40, label %41, label %43, !prof !11

41:                                               ; preds = %38
  %42 = add nsw i32 %39, -1
  store i32 %42, ptr %10, align 4, !tbaa !12
  br label %lean_dec.exit

43:                                               ; preds = %38
  %.not.i19 = icmp eq i32 %39, 0
  br i1 %.not.i19, label %lean_dec.exit, label %44

44:                                               ; preds = %43
  tail call void @lean_dec_ref_cold(ptr noundef nonnull %10) #6
  br label %lean_dec.exit

lean_dec.exit:                                    ; preds = %44, %43, %41, %lean_inc.exit
  %45 = load ptr, ptr @l_Lean_Meta_transformWithCache_visit___at_Lean_Meta_IndPredBelow_mkCtorType_checkCount___spec__3___lambda__1___closed__1, align 8, !tbaa !4
  %46 = tail call ptr @l_Lean_Meta_IndPredBelow_getBelowIndices_loop(ptr noundef %1, ptr noundef %29, ptr noundef %45, ptr noundef nonnull inttoptr (i64 1 to ptr), ptr noundef nonnull inttoptr (i64 1 to ptr), ptr noundef %3, ptr noundef %4, ptr noundef %5, ptr noundef %6, ptr noundef %7)
  ret ptr %46
}